target datalayout = "e-m:e-p270:32:32-p271:32:32-p272:64:64-i64:64-i128:128-f80:128-n8:16:32:64-S128"
target triple = "x86_64-pc-linux-gnu"

%struct.AVPixFmtDescriptor = type { ptr, i8, i8, i8, i64, [4 x %struct.AVComponentDescriptor], ptr }
%struct.AVComponentDescriptor = type { i32, i32, i32, i32, i32 }

; Function Attrs: nounwind uwtable
define internal i32 @check_image_pointers(ptr noundef %0, i32 noundef %1, ptr noundef %2) #0 {
  %4 = alloca i32, align 4
  %5 = alloca ptr, align 8
  %6 = alloca i32, align 4
  %7 = alloca ptr, align 8
  %8 = alloca ptr, align 8
  %9 = alloca i32, align 4
  %10 = alloca i32, align 4
  %11 = alloca i32, align 4
  store ptr %0, ptr %5, align 8, !tbaa !9
  store i32 %1, ptr %6, align 4, !tbaa !14
  store ptr %2, ptr %7, align 8, !tbaa !12
  call void @llvm.lifetime.start.p0(i64 8, ptr %8) #11
  %12 = load i32, ptr %6, align 4, !tbaa !14
  %13 = call ptr @av_pix_fmt_desc_get(i32 noundef %12)
  store ptr %13, ptr %8, align 8, !tbaa !83
  call void @llvm.lifetime.start.p0(i64 4, ptr %9) #11
  store i32 0, ptr %9, align 4, !tbaa !14
  br label %14

14:                                               ; preds = %43, %3
  %15 = load i32, ptr %9, align 4, !tbaa !14
  %16 = icmp slt i32 %15, 4
  br i1 %16, label %17, label %46

17:                                               ; preds = %14
  call void @llvm.lifetime.start.p0(i64 4, ptr %10) #11
  %18 = load ptr, ptr %8, align 8, !tbaa !83
  %19 = getelementptr inbounds nuw %struct.AVPixFmtDescriptor, ptr %18, i32 0, i32 5
  %20 = load i32, ptr %9, align 4, !tbaa !14
  %21 = sext i32 %20 to i64
  %22 = getelementptr inbounds [4 x %struct.AVComponentDescriptor], ptr %19, i64 0, i64 %21
  %23 = getelementptr inbounds nuw %struct.AVComponentDescriptor, ptr %22, i32 0, i32 0
  %24 = load i32, ptr %23, align 4, !tbaa !227
  store i32 %24, ptr %10, align 4, !tbaa !14
  %25 = load ptr, ptr %5, align 8, !tbaa !9
  %26 = load i32, ptr %10, align 4, !tbaa !14
  %27 = sext i32 %26 to i64
  %28 = getelementptr inbounds ptr, ptr %25, i64 %27
  %29 = load ptr, ptr %28, align 8, !tbaa !60
  %30 = icmp ne ptr %29, null
  br i1 %30, label %31, label %38

31:                                               ; preds = %17
  %32 = load ptr, ptr %7, align 8, !tbaa !12
  %33 = load i32, ptr %10, align 4, !tbaa !14
  %34 = sext i32 %33 to i64
  %35 = getelementptr inbounds i32, ptr %32, i64 %34
  %36 = load i32, ptr %35, align 4, !tbaa !14
  %37 = icmp ne i32 %36, 0
  br i1 %37, label %39, label %38

38:                                               ; preds = %31, %17
  store i32 0, ptr %4, align 4
  store i32 1, ptr %11, align 4
  br label %40

39:                                               ; preds = %31
  store i32 0, ptr %11, align 4
  br label %40

40:                                               ; preds = %39, %38
  call void @llvm.lifetime.end.p0(i64 4, ptr %10) #11
  %41 = load i32, ptr %11, align 4
  switch i32 %41, label %47 [
    i32 0, label %42
  ]

42:                                               ; preds = %40
  br label %43

43:                                               ; preds = %42
  %44 = load i32, ptr %9, align 4, !tbaa !14
  %45 = add nsw i32 %44, 1
  store i32 %45, ptr %9, align 4, !tbaa !14
  br label %14, !llvm.loop !228

46:                                               ; preds = %14
  store i32 1, ptr %4, align 4
  store i32 1, ptr %11, align 4
  br label %47

47:                                               ; preds = %46, %40
  call void @llvm.lifetime.end.p0(i64 4, ptr %9) #11
  call void @llvm.lifetime.end.p0(i64 8, ptr %8) #11
  %48 = load i32, ptr %4, align 4
  ret i32 %48
}