; Function Attrs: nounwind uwtable
define internal fastcc range(i32 0, 2) i32 @check_image_pointers(ptr noundef nonnull readonly captures(none) %0, i32 noundef %1, ptr noundef nonnull readonly captures(none) %2) unnamed_addr #0 {
  %4 = tail call ptr @av_pix_fmt_desc_get(i32 noundef %1) #11
  %5 = getelementptr inbounds nuw i8, ptr %4, i64 24
  br label %7

6:                                                ; preds = %.critedge
  %indvars.iv.next = add nuw nsw i64 %indvars.iv, 1
  %exitcond.not = icmp eq i64 %indvars.iv.next, 4
  br i1 %exitcond.not, label %15, label %7, !llvm.loop !215

7:                                                ; preds = %3, %6
  %indvars.iv = phi i64 [ 0, %3 ], [ %indvars.iv.next, %6 ]
  %8 = getelementptr inbounds nuw [4 x %struct.AVComponentDescriptor], ptr %5, i64 0, i64 %indvars.iv
  %9 = load i32, ptr %8, align 4, !tbaa !216
  %10 = sext i32 %9 to i64
  %11 = getelementptr inbounds ptr, ptr %0, i64 %10
  %12 = load ptr, ptr %11, align 8, !tbaa !58
  %.not = icmp eq ptr %12, null
  br i1 %.not, label %15, label %.critedge

.critedge:                                        ; preds = %7
  %13 = getelementptr inbounds i32, ptr %2, i64 %10
  %14 = load i32, ptr %13, align 4, !tbaa !49
  %.not12 = icmp eq i32 %14, 0
  br i1 %.not12, label %15, label %6

15:                                               ; preds = %6, %.critedge, %7
  %.2 = phi i32 [ 0, %7 ], [ 0, %.critedge ], [ 1, %6 ]
  ret i32 %.2
}